target datalayout = "e-m:e-p270:32:32-p271:32:32-p272:64:64-i64:64-i128:128-f80:128-n8:16:32:64-S128"
target triple = "x86_64-pc-linux-gnu"

%struct.quic_conn_id_st = type { i8, [20 x i8] }
%union.bio_addr_st = type { %struct.sockaddr_in6, [84 x i8] }
%struct.sockaddr_in6 = type { i16, i16, i32, %struct.in6_addr, i32 }
%struct.in6_addr = type { %union.anon }
%union.anon = type { [4 x i32] }
%struct.OSSL_TIME = type { i64 }
%struct.quic_channel_st = type { ptr, %struct.anon, %struct.anon.0, ptr, ptr, ptr, ptr, ptr, ptr, ptr, i64, %union.bio_addr_st, ptr, ptr, ptr, %struct.quic_txfc_st, %struct.quic_rxfc_st, [3 x %struct.quic_rxfc_st], %struct.quic_rxfc_st, %struct.quic_rxfc_st, %struct.quic_stream_map_st, %struct.ossl_statm_st, ptr, ptr, ptr, ptr, ptr, ptr, ptr, ptr, [3 x ptr], [3 x ptr], %struct.quic_conn_id_st, %struct.quic_conn_id_st, %struct.quic_conn_id_st, %struct.quic_conn_id_st, %struct.quic_conn_id_st, %struct.quic_conn_id_st, i64, i64, i64, i64, i64, i64, i64, i64, i64, i64, i8, i16, ptr, i64, i64, i64, i64, i64, i64, i64, i64, i64, i64, i64, i64, i64, %struct.quic_terminate_cause_st, %struct.OSSL_TIME, %struct.OSSL_TIME, %struct.OSSL_TIME, %struct.OSSL_TIME, %struct.OSSL_TIME, i64, i64, i64, ptr, ptr, i64, ptr }
%struct.anon = type { ptr, ptr }
%struct.anon.0 = type { ptr, ptr }
%struct.quic_txfc_st = type { ptr, i64, i64, i8 }
%struct.quic_rxfc_st = type { i64, i64, i64, i64, i64, i64, i64, %struct.OSSL_TIME, ptr, ptr, ptr, i8, i8, i8, i8 }
%struct.quic_stream_map_st = type { ptr, %struct.quic_stream_list_node_st, %struct.quic_stream_list_node_st, %struct.quic_stream_list_node_st, i64, i64, i64, i64, i64, ptr, ptr, ptr, ptr, ptr, i32 }
%struct.quic_stream_list_node_st = type { ptr, ptr }
%struct.ossl_statm_st = type { %struct.OSSL_TIME, %struct.OSSL_TIME, %struct.OSSL_TIME, %struct.OSSL_TIME, i8 }
%struct.quic_terminate_cause_st = type { i64, i64, ptr, i64, i8 }
%struct.quic_stream_st = type { %struct.quic_stream_list_node_st, %struct.quic_stream_list_node_st, %struct.quic_stream_list_node_st, ptr, i64, i64, i64, i64, i64, i64, i64, ptr, ptr, %struct.quic_txfc_st, %struct.quic_rxfc_st, i64 }

; Function Attrs: inlinehint nounwind uwtable
define internal i32 @ossl_quic_stream_is_bidi(ptr noundef %0) #4 {
  %2 = alloca ptr, align 8
  store ptr %0, ptr %2, align 8, !tbaa !255
  %3 = load ptr, ptr %2, align 8, !tbaa !255
  %4 = getelementptr inbounds nuw %struct.quic_stream_st, ptr %3, i32 0, i32 15
  %5 = load i64, ptr %4, align 8
  %6 = and i64 %5, 255
  %7 = trunc i64 %6 to i32
  %8 = and i32 %7, 2
  %9 = icmp eq i32 %8, 0
  %10 = zext i1 %9 to i32
  ret i32 %10
}

; Function Attrs: inlinehint nounwind uwtable
define internal i32 @ossl_quic_stream_is_server_init(ptr noundef %0) #4 {
  %2 = alloca ptr, align 8
  store ptr %0, ptr %2, align 8, !tbaa !255
  %3 = load ptr, ptr %2, align 8, !tbaa !255
  %4 = getelementptr inbounds nuw %struct.quic_stream_st, ptr %3, i32 0, i32 15
  %5 = load i64, ptr %4, align 8
  %6 = and i64 %5, 255
  %7 = trunc i64 %6 to i32
  %8 = and i32 %7, 1
  %9 = icmp eq i32 %8, 1
  %10 = zext i1 %9 to i32
  ret i32 %10
}

; Function Attrs: nounwind uwtable
define internal i32 @ch_init_new_stream(ptr noundef %0, ptr noundef %1, i32 noundef %2, i32 noundef %3) #0 {
  %5 = alloca i32, align 4
  %6 = alloca ptr, align 8
  %7 = alloca ptr, align 8
  %8 = alloca i32, align 4
  %9 = alloca i32, align 4
  %10 = alloca i64, align 8
  %11 = alloca i32, align 4
  %12 = alloca i32, align 4
  %13 = alloca i32, align 4
  %14 = alloca i64, align 8
  %15 = alloca i32, align 4
  store ptr %0, ptr %6, align 8, !tbaa !3
  store ptr %1, ptr %7, align 8, !tbaa !255
  store i32 %2, ptr %8, align 4, !tbaa !80
  store i32 %3, ptr %9, align 4, !tbaa !80
  call void @llvm.lifetime.start.p0(i64 8, ptr %10) #9
  call void @llvm.lifetime.start.p0(i64 4, ptr %11) #9
  %16 = load ptr, ptr %7, align 8, !tbaa !255
  %17 = call i32 @ossl_quic_stream_is_server_init(ptr noundef %16)
  store i32 %17, ptr %11, align 4, !tbaa !80
  call void @llvm.lifetime.start.p0(i64 4, ptr %12) #9
  %18 = load ptr, ptr %6, align 8, !tbaa !3
  %19 = getelementptr inbounds nuw %struct.quic_channel_st, ptr %18, i32 0, i32 72
  %20 = load i64, ptr %19, align 8
  %21 = lshr i64 %20, 25
  %22 = and i64 %21, 1
  %23 = trunc i64 %22 to i32
  %24 = load i32, ptr %11, align 4, !tbaa !80
  %25 = icmp eq i32 %23, %24
  %26 = zext i1 %25 to i32
  store i32 %26, ptr %12, align 4, !tbaa !80
  call void @llvm.lifetime.start.p0(i64 4, ptr %13) #9
  %27 = load ptr, ptr %7, align 8, !tbaa !255
  %28 = call i32 @ossl_quic_stream_is_bidi(ptr noundef %27)
  %29 = icmp ne i32 %28, 0
  %30 = xor i1 %29, true
  %31 = zext i1 %30 to i32
  store i32 %31, ptr %13, align 4, !tbaa !80
  %32 = load i32, ptr %8, align 4, !tbaa !80
  %33 = icmp ne i32 %32, 0
  br i1 %33, label %34, label %41

34:                                               ; preds = %4
  %35 = call ptr @ossl_quic_sstream_new(i64 noundef 8192)
  %36 = load ptr, ptr %7, align 8, !tbaa !255
  %37 = getelementptr inbounds nuw %struct.quic_stream_st, ptr %36, i32 0, i32 11
  store ptr %35, ptr %37, align 8, !tbaa !256
  %38 = icmp eq ptr %35, null
  br i1 %38, label %39, label %40

39:                                               ; preds = %34
  br label %132

40:                                               ; preds = %34
  br label %41

41:                                               ; preds = %40, %4
  %42 = load i32, ptr %9, align 4, !tbaa !80
  %43 = icmp ne i32 %42, 0
  br i1 %43, label %44, label %51

44:                                               ; preds = %41
  %45 = call ptr @ossl_quic_rstream_new(ptr noundef null, ptr noundef null, i64 noundef 0)
  %46 = load ptr, ptr %7, align 8, !tbaa !255
  %47 = getelementptr inbounds nuw %struct.quic_stream_st, ptr %46, i32 0, i32 12
  store ptr %45, ptr %47, align 8, !tbaa !258
  %48 = icmp eq ptr %45, null
  br i1 %48, label %49, label %50

49:                                               ; preds = %44
  br label %132

50:                                               ; preds = %44
  br label %51

51:                                               ; preds = %50, %41
  %52 = load ptr, ptr %7, align 8, !tbaa !255
  %53 = getelementptr inbounds nuw %struct.quic_stream_st, ptr %52, i32 0, i32 13
  %54 = load ptr, ptr %6, align 8, !tbaa !3
  %55 = getelementptr inbounds nuw %struct.quic_channel_st, ptr %54, i32 0, i32 15
  %56 = call i32 @ossl_quic_txfc_init(ptr noundef %53, ptr noundef %55)
  %57 = icmp ne i32 %56, 0
  br i1 %57, label %59, label %58

58:                                               ; preds = %51
  br label %132

59:                                               ; preds = %51
  %60 = load ptr, ptr %6, align 8, !tbaa !3
  %61 = getelementptr inbounds nuw %struct.quic_channel_st, ptr %60, i32 0, i32 72
  %62 = load i64, ptr %61, align 8
  %63 = lshr i64 %62, 7
  %64 = and i64 %63, 1
  %65 = trunc i64 %64 to i32
  %66 = icmp ne i32 %65, 0
  br i1 %66, label %67, label %95

67:                                               ; preds = %59
  %68 = load i32, ptr %8, align 4, !tbaa !80
  %69 = icmp ne i32 %68, 0
  br i1 %69, label %70, label %94

70:                                               ; preds = %67
  call void @llvm.lifetime.start.p0(i64 8, ptr %14) #9
  %71 = load i32, ptr %13, align 4, !tbaa !80
  %72 = icmp ne i32 %71, 0
  br i1 %72, label %73, label %77

73:                                               ; preds = %70
  %74 = load ptr, ptr %6, align 8, !tbaa !3
  %75 = getelementptr inbounds nuw %struct.quic_channel_st, ptr %74, i32 0, i32 46
  %76 = load i64, ptr %75, align 8, !tbaa !259
  store i64 %76, ptr %14, align 8, !tbaa !47
  br label %89

77:                                               ; preds = %70
  %78 = load i32, ptr %12, align 4, !tbaa !80
  %79 = icmp ne i32 %78, 0
  br i1 %79, label %80, label %84

80:                                               ; preds = %77
  %81 = load ptr, ptr %6, align 8, !tbaa !3
  %82 = getelementptr inbounds nuw %struct.quic_channel_st, ptr %81, i32 0, i32 44
  %83 = load i64, ptr %82, align 8, !tbaa !260
  store i64 %83, ptr %14, align 8, !tbaa !47
  br label %88

84:                                               ; preds = %77
  %85 = load ptr, ptr %6, align 8, !tbaa !3
  %86 = getelementptr inbounds nuw %struct.quic_channel_st, ptr %85, i32 0, i32 45
  %87 = load i64, ptr %86, align 8, !tbaa !261
  store i64 %87, ptr %14, align 8, !tbaa !47
  br label %88

88:                                               ; preds = %84, %80
  br label %89

89:                                               ; preds = %88, %73
  %90 = load ptr, ptr %7, align 8, !tbaa !255
  %91 = getelementptr inbounds nuw %struct.quic_stream_st, ptr %90, i32 0, i32 13
  %92 = load i64, ptr %14, align 8, !tbaa !47
  %93 = call i32 @ossl_quic_txfc_bump_cwm(ptr noundef %91, i64 noundef %92)
  call void @llvm.lifetime.end.p0(i64 8, ptr %14) #9
  br label %94

94:                                               ; preds = %89, %67
  br label %95

95:                                               ; preds = %94, %59
  %96 = load i32, ptr %9, align 4, !tbaa !80
  %97 = icmp ne i32 %96, 0
  br i1 %97, label %99, label %98

98:                                               ; preds = %95
  store i64 0, ptr %10, align 8, !tbaa !47
  br label %119

99:                                               ; preds = %95
  %100 = load i32, ptr %13, align 4, !tbaa !80
  %101 = icmp ne i32 %100, 0
  br i1 %101, label %102, label %106

102:                                              ; preds = %99
  %103 = load ptr, ptr %6, align 8, !tbaa !3
  %104 = getelementptr inbounds nuw %struct.quic_channel_st, ptr %103, i32 0, i32 42
  %105 = load i64, ptr %104, align 8, !tbaa !79
  store i64 %105, ptr %10, align 8, !tbaa !47
  br label %118

106:                                              ; preds = %99
  %107 = load i32, ptr %12, align 4, !tbaa !80
  %108 = icmp ne i32 %107, 0
  br i1 %108, label %109, label %113

109:                                              ; preds = %106
  %110 = load ptr, ptr %6, align 8, !tbaa !3
  %111 = getelementptr inbounds nuw %struct.quic_channel_st, ptr %110, i32 0, i32 40
  %112 = load i64, ptr %111, align 8, !tbaa !77
  store i64 %112, ptr %10, align 8, !tbaa !47
  br label %117

113:                                              ; preds = %106
  %114 = load ptr, ptr %6, align 8, !tbaa !3
  %115 = getelementptr inbounds nuw %struct.quic_channel_st, ptr %114, i32 0, i32 41
  %116 = load i64, ptr %115, align 8, !tbaa !78
  store i64 %116, ptr %10, align 8, !tbaa !47
  br label %117

117:                                              ; preds = %113, %109
  br label %118

118:                                              ; preds = %117, %102
  br label %119

119:                                              ; preds = %118, %98
  %120 = load ptr, ptr %7, align 8, !tbaa !255
  %121 = getelementptr inbounds nuw %struct.quic_stream_st, ptr %120, i32 0, i32 14
  %122 = load ptr, ptr %6, align 8, !tbaa !3
  %123 = getelementptr inbounds nuw %struct.quic_channel_st, ptr %122, i32 0, i32 16
  %124 = load i64, ptr %10, align 8, !tbaa !47
  %125 = load i64, ptr %10, align 8, !tbaa !47
  %126 = mul i64 12, %125
  %127 = load ptr, ptr %6, align 8, !tbaa !3
  %128 = call i32 @ossl_quic_rxfc_init(ptr noundef %121, ptr noundef %123, i64 noundef %124, i64 noundef %126, ptr noundef @get_time, ptr noundef %127)
  %129 = icmp ne i32 %128, 0
  br i1 %129, label %131, label %130

130:                                              ; preds = %119
  br label %132

131:                                              ; preds = %119
  store i32 1, ptr %5, align 4
  store i32 1, ptr %15, align 4
  br label %143

132:                                              ; preds = %130, %58, %49, %39
  %133 = load ptr, ptr %7, align 8, !tbaa !255
  %134 = getelementptr inbounds nuw %struct.quic_stream_st, ptr %133, i32 0, i32 11
  %135 = load ptr, ptr %134, align 8, !tbaa !256
  call void @ossl_quic_sstream_free(ptr noundef %135)
  %136 = load ptr, ptr %7, align 8, !tbaa !255
  %137 = getelementptr inbounds nuw %struct.quic_stream_st, ptr %136, i32 0, i32 11
  store ptr null, ptr %137, align 8, !tbaa !256
  %138 = load ptr, ptr %7, align 8, !tbaa !255
  %139 = getelementptr inbounds nuw %struct.quic_stream_st, ptr %138, i32 0, i32 12
  %140 = load ptr, ptr %139, align 8, !tbaa !258
  call void @ossl_quic_rstream_free(ptr noundef %140)
  %141 = load ptr, ptr %7, align 8, !tbaa !255
  %142 = getelementptr inbounds nuw %struct.quic_stream_st, ptr %141, i32 0, i32 12
  store ptr null, ptr %142, align 8, !tbaa !258
  store i32 0, ptr %5, align 4
  store i32 1, ptr %15, align 4
  br label %143

143:                                              ; preds = %132, %131
  call void @llvm.lifetime.end.p0(i64 4, ptr %13) #9
  call void @llvm.lifetime.end.p0(i64 4, ptr %12) #9
  call void @llvm.lifetime.end.p0(i64 4, ptr %11) #9
  call void @llvm.lifetime.end.p0(i64 8, ptr %10) #9
  %144 = load i32, ptr %5, align 4
  ret i32 %144
}