; Function Attrs: nounwind uwtable
define internal fastcc range(i32 0, 2) i32 @ch_init_new_stream(ptr noundef %0, ptr noundef nonnull %1, i32 noundef range(i32 0, 2) %2, i32 noundef range(i32 0, 2) %3) unnamed_addr #0 {
  %5 = getelementptr i8, ptr %1, i64 256
  %.val40 = load i64, ptr %5, align 8
  %6 = trunc i64 %.val40 to i32
  %7 = getelementptr inbounds nuw i8, ptr %0, i64 1568
  %8 = load i64, ptr %7, align 8
  %9 = trunc i64 %8 to i32
  %10 = lshr i32 %9, 25
  %11 = xor i32 %10, %6
  %12 = and i32 %11, 1
  %13 = icmp eq i32 %12, 0
  %14 = and i64 %.val40, 2
  %.not = icmp eq i64 %14, 0
  %15 = icmp ne i32 %2, 0
  br i1 %15, label %16, label %20

16:                                               ; preds = %4
  %17 = tail call ptr @ossl_quic_sstream_new(i64 noundef 8192) #15
  %18 = getelementptr inbounds nuw i8, ptr %1, i64 112
  store ptr %17, ptr %18, align 8, !tbaa !246
  %19 = icmp eq ptr %17, null
  br i1 %19, label %44, label %20

20:                                               ; preds = %16, %4
  %.not37 = icmp eq i32 %3, 0
  br i1 %.not37, label %25, label %21

21:                                               ; preds = %20
  %22 = tail call ptr @ossl_quic_rstream_new(ptr noundef null, ptr noundef null, i64 noundef 0) #15
  %23 = getelementptr inbounds nuw i8, ptr %1, i64 120
  store ptr %22, ptr %23, align 8, !tbaa !248
  %24 = icmp eq ptr %22, null
  br i1 %24, label %44, label %25

25:                                               ; preds = %21, %20
  %26 = getelementptr inbounds nuw i8, ptr %1, i64 128
  %27 = getelementptr inbounds nuw i8, ptr %0, i64 240
  %28 = tail call i32 @ossl_quic_txfc_init(ptr noundef nonnull %26, ptr noundef nonnull %27) #15
  %.not38 = icmp eq i32 %28, 0
  br i1 %.not38, label %44, label %29

29:                                               ; preds = %25
  %30 = load i64, ptr %7, align 8
  %31 = and i64 %30, 128
  %32 = icmp ne i64 %31, 0
  %or.cond = and i1 %15, %32
  br i1 %or.cond, label %33, label %36

33:                                               ; preds = %29
  %. = select i1 %13, i64 1320, i64 1328
  %.sink = select i1 %.not, i64 %., i64 1336
  %34 = getelementptr inbounds nuw i8, ptr %0, i64 %.sink
  %.0 = load i64, ptr %34, align 8, !tbaa !71
  %35 = tail call i32 @ossl_quic_txfc_bump_cwm(ptr noundef nonnull %26, i64 noundef %.0) #15
  br label %36

36:                                               ; preds = %33, %29
  br i1 %.not37, label %39, label %.sink.split

.sink.split:                                      ; preds = %36
  %.43 = select i1 %13, i64 1288, i64 1296
  %.sink42 = select i1 %.not, i64 %.43, i64 1304
  %37 = getelementptr inbounds nuw i8, ptr %0, i64 %.sink42
  %38 = load i64, ptr %37, align 8, !tbaa !71
  br label %39

39:                                               ; preds = %.sink.split, %36
  %.036 = phi i64 [ 0, %36 ], [ %38, %.sink.split ]
  %40 = getelementptr inbounds nuw i8, ptr %1, i64 160
  %41 = getelementptr inbounds nuw i8, ptr %0, i64 272
  %42 = mul i64 %.036, 12
  %43 = tail call i32 @ossl_quic_rxfc_init(ptr noundef nonnull %40, ptr noundef nonnull %41, i64 noundef %.036, i64 noundef %42, ptr noundef nonnull @get_time, ptr noundef nonnull %0) #15
  %.not39 = icmp eq i32 %43, 0
  br i1 %.not39, label %44, label %49

44:                                               ; preds = %39, %25, %21, %16
  %45 = getelementptr inbounds nuw i8, ptr %1, i64 112
  %46 = load ptr, ptr %45, align 8, !tbaa !246
  tail call void @ossl_quic_sstream_free(ptr noundef %46) #15
  store ptr null, ptr %45, align 8, !tbaa !246
  %47 = getelementptr inbounds nuw i8, ptr %1, i64 120
  %48 = load ptr, ptr %47, align 8, !tbaa !248
  tail call void @ossl_quic_rstream_free(ptr noundef %48) #15
  store ptr null, ptr %47, align 8, !tbaa !248
  br label %49

49:                                               ; preds = %39, %44
  %.035 = phi i32 [ 0, %44 ], [ 1, %39 ]
  ret i32 %.035
}